target datalayout = "e-m:e-p270:32:32-p271:32:32-p272:64:64-i64:64-i128:128-f80:128-n8:16:32:64-S128"
target triple = "x86_64-pc-linux-gnu"

%struct.varattrib_1b = type { i8, [0 x i8] }
%struct.varattrib_1b_e = type { i8, i8, [0 x i8] }
%struct.anon = type { i32, [0 x i8] }
%struct.FunctionCallInfoBaseData = type { ptr, ptr, ptr, i32, i8, i16, [0 x %struct.NullableDatum] }
%struct.NullableDatum = type { i64, i8 }

; Function Attrs: nounwind uwtable
define internal zeroext i1 @RE_execute(ptr noundef %0, ptr noundef %1, i32 noundef %2, i32 noundef %3, ptr noundef %4) #0 {
  %6 = alloca ptr, align 8
  %7 = alloca ptr, align 8
  %8 = alloca i32, align 4
  %9 = alloca i32, align 4
  %10 = alloca ptr, align 8
  %11 = alloca ptr, align 8
  %12 = alloca i32, align 4
  %13 = alloca i8, align 1
  store ptr %0, ptr %6, align 8
  store ptr %1, ptr %7, align 8
  store i32 %2, ptr %8, align 4
  store i32 %3, ptr %9, align 4
  store ptr %4, ptr %10, align 8
  call void @llvm.lifetime.start.p0(i64 8, ptr %11) #8
  call void @llvm.lifetime.start.p0(i64 4, ptr %12) #8
  call void @llvm.lifetime.start.p0(i64 1, ptr %13) #8
  %14 = load i32, ptr %8, align 4
  %15 = add i32 %14, 1
  %16 = sext i32 %15 to i64
  %17 = mul i64 %16, 4
  %18 = call ptr @palloc(i64 noundef %17)
  store ptr %18, ptr %11, align 8
  %19 = load ptr, ptr %7, align 8
  %20 = load ptr, ptr %11, align 8
  %21 = load i32, ptr %8, align 4
  %22 = call i32 @pg_mb2wchar_with_len(ptr noundef %19, ptr noundef %20, i32 noundef %21)
  store i32 %22, ptr %12, align 4
  %23 = load ptr, ptr %6, align 8
  %24 = load ptr, ptr %11, align 8
  %25 = load i32, ptr %12, align 4
  %26 = load i32, ptr %9, align 4
  %27 = load ptr, ptr %10, align 8
  %28 = call zeroext i1 @RE_wchar_execute(ptr noundef %23, ptr noundef %24, i32 noundef %25, i32 noundef 0, i32 noundef %26, ptr noundef %27)
  %29 = zext i1 %28 to i8
  store i8 %29, ptr %13, align 1
  %30 = load ptr, ptr %11, align 8
  call void @pfree(ptr noundef %30)
  %31 = load i8, ptr %13, align 1, !range !6, !noundef !7
  %32 = trunc i8 %31 to i1
  call void @llvm.lifetime.end.p0(i64 1, ptr %13) #8
  call void @llvm.lifetime.end.p0(i64 4, ptr %12) #8
  call void @llvm.lifetime.end.p0(i64 8, ptr %11) #8
  ret i1 %32
}

; Function Attrs: inlinehint nounwind uwtable
define internal i64 @BoolGetDatum(i1 noundef zeroext %0) #6 {
  %2 = alloca i8, align 1
  %3 = zext i1 %0 to i8
  store i8 %3, ptr %2, align 1
  %4 = load i8, ptr %2, align 1, !range !6, !noundef !7
  %5 = trunc i8 %4 to i1
  %6 = select i1 %5, i32 1, i32 0
  %7 = sext i32 %6 to i64
  ret i64 %7
}

; Function Attrs: nounwind uwtable
define dso_local zeroext i1 @RE_compile_and_execute(ptr noundef %0, ptr noundef %1, i32 noundef %2, i32 noundef %3, i32 noundef %4, i32 noundef %5, ptr noundef %6) #0 {
  %8 = alloca ptr, align 8
  %9 = alloca ptr, align 8
  %10 = alloca i32, align 4
  %11 = alloca i32, align 4
  %12 = alloca i32, align 4
  %13 = alloca i32, align 4
  %14 = alloca ptr, align 8
  %15 = alloca ptr, align 8
  store ptr %0, ptr %8, align 8
  store ptr %1, ptr %9, align 8
  store i32 %2, ptr %10, align 4
  store i32 %3, ptr %11, align 4
  store i32 %4, ptr %12, align 4
  store i32 %5, ptr %13, align 4
  store ptr %6, ptr %14, align 8
  call void @llvm.lifetime.start.p0(i64 8, ptr %15) #8
  %16 = load i32, ptr %13, align 4
  %17 = icmp slt i32 %16, 2
  br i1 %17, label %18, label %21

18:                                               ; preds = %7
  %19 = load i32, ptr %11, align 4
  %20 = or i32 %19, 16
  store i32 %20, ptr %11, align 4
  br label %21

21:                                               ; preds = %18, %7
  %22 = load ptr, ptr %8, align 8
  %23 = load i32, ptr %11, align 4
  %24 = load i32, ptr %12, align 4
  %25 = call ptr @RE_compile_and_cache(ptr noundef %22, i32 noundef %23, i32 noundef %24)
  store ptr %25, ptr %15, align 8
  %26 = load ptr, ptr %15, align 8
  %27 = load ptr, ptr %9, align 8
  %28 = load i32, ptr %10, align 4
  %29 = load i32, ptr %13, align 4
  %30 = load ptr, ptr %14, align 8
  %31 = call zeroext i1 @RE_execute(ptr noundef %26, ptr noundef %27, i32 noundef %28, i32 noundef %29, ptr noundef %30)
  call void @llvm.lifetime.end.p0(i64 8, ptr %15) #8
  ret i1 %31
}

; Function Attrs: inlinehint nounwind uwtable
define internal ptr @DatumGetPointer(i64 noundef %0) #6 {
  %2 = alloca i64, align 8
  store i64 %0, ptr %2, align 8
  %3 = load i64, ptr %2, align 8
  %4 = inttoptr i64 %3 to ptr
  ret ptr %4
}

; Function Attrs: nounwind uwtable
define dso_local i64 @texticregexeq(ptr noundef %0) #0 {
  %2 = alloca ptr, align 8
  %3 = alloca ptr, align 8
  %4 = alloca ptr, align 8
  store ptr %0, ptr %2, align 8
  call void @llvm.lifetime.start.p0(i64 8, ptr %3) #8
  %5 = load ptr, ptr %2, align 8
  %6 = getelementptr inbounds nuw %struct.FunctionCallInfoBaseData, ptr %5, i32 0, i32 6
  %7 = getelementptr inbounds [0 x %struct.NullableDatum], ptr %6, i64 0, i64 0
  %8 = getelementptr inbounds nuw %struct.NullableDatum, ptr %7, i32 0, i32 0
  %9 = load i64, ptr %8, align 8
  %10 = call ptr @DatumGetPointer(i64 noundef %9)
  %11 = call ptr @pg_detoast_datum_packed(ptr noundef %10)
  store ptr %11, ptr %3, align 8
  call void @llvm.lifetime.start.p0(i64 8, ptr %4) #8
  %12 = load ptr, ptr %2, align 8
  %13 = getelementptr inbounds nuw %struct.FunctionCallInfoBaseData, ptr %12, i32 0, i32 6
  %14 = getelementptr inbounds [0 x %struct.NullableDatum], ptr %13, i64 0, i64 1
  %15 = getelementptr inbounds nuw %struct.NullableDatum, ptr %14, i32 0, i32 0
  %16 = load i64, ptr %15, align 8
  %17 = call ptr @DatumGetPointer(i64 noundef %16)
  %18 = call ptr @pg_detoast_datum_packed(ptr noundef %17)
  store ptr %18, ptr %4, align 8
  %19 = load ptr, ptr %4, align 8
  %20 = load ptr, ptr %3, align 8
  %21 = getelementptr inbounds nuw %struct.varattrib_1b, ptr %20, i32 0, i32 0
  %22 = load i8, ptr %21, align 1
  %23 = zext i8 %22 to i32
  %24 = and i32 %23, 1
  %25 = icmp eq i32 %24, 1
  br i1 %25, label %26, label %30

26:                                               ; preds = %1
  %27 = load ptr, ptr %3, align 8
  %28 = getelementptr inbounds nuw %struct.varattrib_1b, ptr %27, i32 0, i32 1
  %29 = getelementptr inbounds [0 x i8], ptr %28, i64 0, i64 0
  br label %34

30:                                               ; preds = %1
  %31 = load ptr, ptr %3, align 8
  %32 = getelementptr inbounds nuw %struct.anon, ptr %31, i32 0, i32 1
  %33 = getelementptr inbounds [0 x i8], ptr %32, i64 0, i64 0
  br label %34

34:                                               ; preds = %30, %26
  %35 = phi ptr [ %29, %26 ], [ %33, %30 ]
  %36 = load ptr, ptr %3, align 8
  %37 = getelementptr inbounds nuw %struct.varattrib_1b, ptr %36, i32 0, i32 0
  %38 = load i8, ptr %37, align 1
  %39 = zext i8 %38 to i32
  %40 = icmp eq i32 %39, 1
  br i1 %40, label %41, label %69

41:                                               ; preds = %34
  %42 = load ptr, ptr %3, align 8
  %43 = getelementptr inbounds nuw %struct.varattrib_1b_e, ptr %42, i32 0, i32 1
  %44 = load i8, ptr %43, align 1
  %45 = zext i8 %44 to i32
  %46 = icmp eq i32 %45, 1
  br i1 %46, label %47, label %48

47:                                               ; preds = %41
  br label %65

48:                                               ; preds = %41
  %49 = load ptr, ptr %3, align 8
  %50 = getelementptr inbounds nuw %struct.varattrib_1b_e, ptr %49, i32 0, i32 1
  %51 = load i8, ptr %50, align 1
  %52 = zext i8 %51 to i32
  %53 = and i32 %52, -2
  %54 = icmp eq i32 %53, 2
  br i1 %54, label %55, label %56

55:                                               ; preds = %48
  br label %63

56:                                               ; preds = %48
  %57 = load ptr, ptr %3, align 8
  %58 = getelementptr inbounds nuw %struct.varattrib_1b_e, ptr %57, i32 0, i32 1
  %59 = load i8, ptr %58, align 1
  %60 = zext i8 %59 to i32
  %61 = icmp eq i32 %60, 18
  %62 = select i1 %61, i64 16, i64 0
  br label %63

63:                                               ; preds = %56, %55
  %64 = phi i64 [ 8, %55 ], [ %62, %56 ]
  br label %65

65:                                               ; preds = %63, %47
  %66 = phi i64 [ 8, %47 ], [ %64, %63 ]
  %67 = add i64 2, %66
  %68 = sub i64 %67, 2
  br label %95

69:                                               ; preds = %34
  %70 = load ptr, ptr %3, align 8
  %71 = getelementptr inbounds nuw %struct.varattrib_1b, ptr %70, i32 0, i32 0
  %72 = load i8, ptr %71, align 1
  %73 = zext i8 %72 to i32
  %74 = and i32 %73, 1
  %75 = icmp eq i32 %74, 1
  br i1 %75, label %76, label %85

76:                                               ; preds = %69
  %77 = load ptr, ptr %3, align 8
  %78 = getelementptr inbounds nuw %struct.varattrib_1b, ptr %77, i32 0, i32 0
  %79 = load i8, ptr %78, align 1
  %80 = zext i8 %79 to i32
  %81 = ashr i32 %80, 1
  %82 = and i32 %81, 127
  %83 = sext i32 %82 to i64
  %84 = sub i64 %83, 1
  br label %93

85:                                               ; preds = %69
  %86 = load ptr, ptr %3, align 8
  %87 = getelementptr inbounds nuw %struct.anon, ptr %86, i32 0, i32 0
  %88 = load i32, ptr %87, align 4
  %89 = lshr i32 %88, 2
  %90 = and i32 %89, 1073741823
  %91 = sub i32 %90, 4
  %92 = zext i32 %91 to i64
  br label %93

93:                                               ; preds = %85, %76
  %94 = phi i64 [ %84, %76 ], [ %92, %85 ]
  br label %95

95:                                               ; preds = %93, %65
  %96 = phi i64 [ %68, %65 ], [ %94, %93 ]
  %97 = trunc i64 %96 to i32
  %98 = load ptr, ptr %2, align 8
  %99 = getelementptr inbounds nuw %struct.FunctionCallInfoBaseData, ptr %98, i32 0, i32 3
  %100 = load i32, ptr %99, align 8
  %101 = call zeroext i1 @RE_compile_and_execute(ptr noundef %19, ptr noundef %35, i32 noundef %97, i32 noundef 11, i32 noundef %100, i32 noundef 0, ptr noundef null)
  %102 = call i64 @BoolGetDatum(i1 noundef zeroext %101)
  call void @llvm.lifetime.end.p0(i64 8, ptr %4) #8
  call void @llvm.lifetime.end.p0(i64 8, ptr %3) #8
  ret i64 %102
}