; Function Attrs: nounwind uwtable
define dso_local range(i64 0, 2) i64 @texticregexeq(ptr noundef readonly captures(none) %0) local_unnamed_addr #0 {
  %2 = getelementptr inbounds nuw i8, ptr %0, i64 32
  %3 = load i64, ptr %2, align 8
  %4 = inttoptr i64 %3 to ptr
  %5 = tail call ptr @pg_detoast_datum_packed(ptr noundef %4) #9
  %6 = getelementptr inbounds nuw i8, ptr %0, i64 48
  %7 = load i64, ptr %6, align 8
  %8 = inttoptr i64 %7 to ptr
  %9 = tail call ptr @pg_detoast_datum_packed(ptr noundef %8) #9
  %10 = load i8, ptr %5, align 1
  %11 = zext i8 %10 to i32
  %12 = and i32 %11, 1
  %.not = icmp eq i32 %12, 0
  %13 = getelementptr inbounds nuw i8, ptr %5, i64 1
  %14 = icmp eq i8 %10, 1
  br i1 %14, label %15, label %23

15:                                               ; preds = %1
  %16 = load i8, ptr %13, align 1
  %17 = icmp eq i8 %16, 1
  %18 = and i8 %16, -2
  %19 = icmp eq i8 %18, 2
  %or.cond = or i1 %17, %19
  %20 = icmp eq i8 %16, 18
  %21 = select i1 %20, i32 16, i32 0
  %22 = select i1 %or.cond, i32 8, i32 %21
  br label %31

23:                                               ; preds = %1
  br i1 %.not, label %27, label %24

24:                                               ; preds = %23
  %25 = lshr i32 %11, 1
  %26 = add nsw i32 %25, -1
  br label %31

27:                                               ; preds = %23
  %28 = load i32, ptr %5, align 4
  %29 = lshr i32 %28, 2
  %30 = add nsw i32 %29, -4
  br label %31

31:                                               ; preds = %24, %27, %15
  %32 = phi i32 [ %22, %15 ], [ %26, %24 ], [ %30, %27 ]
  %33 = getelementptr inbounds nuw i8, ptr %5, i64 4
  %34 = select i1 %.not, ptr %33, ptr %13
  %35 = getelementptr inbounds nuw i8, ptr %0, i64 24
  %36 = load i32, ptr %35, align 8
  %37 = tail call ptr @RE_compile_and_cache(ptr noundef %9, i32 noundef 27, i32 noundef %36)
  %38 = add nsw i32 %32, 1
  %39 = sext i32 %38 to i64
  %40 = shl nsw i64 %39, 2
  %41 = tail call ptr @palloc(i64 noundef %40) #9
  %42 = tail call i32 @pg_mb2wchar_with_len(ptr noundef nonnull %34, ptr noundef %41, i32 noundef %32) #9
  %43 = tail call fastcc zeroext i1 @RE_wchar_execute(ptr noundef %41, i32 noundef %42, i32 noundef 0, i32 noundef 0, ptr noundef null)
  tail call void @pfree(ptr noundef %41) #9
  %44 = zext i1 %43 to i64
  ret i64 %44
}